target datalayout = "e-m:e-p270:32:32-p271:32:32-p272:64:64-i64:64-i128:128-f80:128-n8:16:32:64-S128"
target triple = "x86_64-pc-linux-gnu"

@db_conn = dso_local global ptr null, align 8
@have_db_conn = dso_local global i8 0, align 1
@exit_code = dso_local global i32 0, align 4
@readonly_flag = dso_local global i32 0, align 4
@stderr = external global ptr, align 8
@.str.59 = private unnamed_addr constant [42 x i8] c"Can't run this command in readonly mode.\0A\00", align 1
@.str.61 = private unnamed_addr constant [5 x i8] c"Acct\00", align 1
@.str.65 = private unnamed_addr constant [4 x i8] c"QOS\00", align 1
@.str.66 = private unnamed_addr constant [9 x i8] c"Resource\00", align 1
@.str.69 = private unnamed_addr constant [25 x i8] c"Input line must include \00", align 1
@.str.70 = private unnamed_addr constant [38 x i8] c"\22Account\22, \22Cluster\22, \22Coordinator\22, \00", align 1
@.str.80 = private unnamed_addr constant [9 x i8] c"Accounts\00", align 1
@.str.82 = private unnamed_addr constant [9 x i8] c"Clusters\00", align 1
@.str.93 = private unnamed_addr constant [6 x i8] c"Users\00", align 1
@.str.101 = private unnamed_addr constant [13 x i8] c"Coordinators\00", align 1
@.str.102 = private unnamed_addr constant [12 x i8] c"Federations\00", align 1
@.str.103 = private unnamed_addr constant [35 x i8] c"No valid entity in delete command\0A\00", align 1
@.str.104 = private unnamed_addr constant [37 x i8] c"\22Federation\22, \22QOS\22, \22Resource\22, or \00", align 1
@.str.105 = private unnamed_addr constant [8 x i8] c"\22User\22\0A\00", align 1

; Function Attrs: nounwind uwtable
define internal void @_delete_it(i32 noundef %0, ptr noundef %1) #0 {
  %3 = alloca i32, align 4
  %4 = alloca ptr, align 8
  %5 = alloca i32, align 4
  %6 = alloca i32, align 4
  %7 = alloca i32, align 4
  store i32 %0, ptr %3, align 4
  store ptr %1, ptr %4, align 8
  call void @llvm.lifetime.start.p0(i64 4, ptr %5) #12
  store i32 0, ptr %5, align 4
  call void @llvm.lifetime.start.p0(i64 4, ptr %6) #12
  store i32 0, ptr %6, align 4
  %8 = load i8, ptr @have_db_conn, align 1, !range !12, !noundef !13
  %9 = trunc i8 %8 to i1
  br i1 %9, label %11, label %10

10:                                               ; preds = %2
  store i32 1, ptr @exit_code, align 4
  store i32 1, ptr %7, align 4
  br label %207

11:                                               ; preds = %2
  %12 = load i32, ptr @readonly_flag, align 4
  %13 = icmp ne i32 %12, 0
  br i1 %13, label %14, label %17

14:                                               ; preds = %11
  store i32 1, ptr @exit_code, align 4
  %15 = load ptr, ptr @stderr, align 8
  %16 = call i32 (ptr, ptr, ...) @fprintf(ptr noundef %15, ptr noundef @.str.59) #12
  store i32 1, ptr %7, align 4
  br label %207

17:                                               ; preds = %11
  %18 = load ptr, ptr %4, align 8
  %19 = getelementptr inbounds ptr, ptr %18, i64 0
  %20 = load ptr, ptr %19, align 8
  %21 = icmp ne ptr %20, null
  br i1 %21, label %23, label %22

22:                                               ; preds = %17
  br label %185

23:                                               ; preds = %17
  %24 = load ptr, ptr %4, align 8
  %25 = getelementptr inbounds ptr, ptr %24, i64 0
  %26 = load ptr, ptr %25, align 8
  %27 = call i64 @strlen(ptr noundef %26) #16
  %28 = trunc i64 %27 to i32
  store i32 %28, ptr %6, align 4
  %29 = load ptr, ptr @db_conn, align 8
  %30 = call i32 @slurmdb_connection_commit(ptr noundef %29, i1 noundef zeroext false)
  %31 = load ptr, ptr %4, align 8
  %32 = getelementptr inbounds ptr, ptr %31, i64 0
  %33 = load ptr, ptr %32, align 8
  %34 = load i32, ptr %6, align 4
  %35 = icmp sgt i32 %34, 1
  br i1 %35, label %36, label %38

36:                                               ; preds = %23
  %37 = load i32, ptr %6, align 4
  br label %39

38:                                               ; preds = %23
  br label %39

39:                                               ; preds = %38, %36
  %40 = phi i32 [ %37, %36 ], [ 1, %38 ]
  %41 = sext i32 %40 to i64
  %42 = call i32 @xstrncasecmp(ptr noundef %33, ptr noundef @.str.80, i64 noundef %41)
  %43 = icmp eq i32 %42, 0
  br i1 %43, label %58, label %44

44:                                               ; preds = %39
  %45 = load ptr, ptr %4, align 8
  %46 = getelementptr inbounds ptr, ptr %45, i64 0
  %47 = load ptr, ptr %46, align 8
  %48 = load i32, ptr %6, align 4
  %49 = icmp sgt i32 %48, 4
  br i1 %49, label %50, label %52

50:                                               ; preds = %44
  %51 = load i32, ptr %6, align 4
  br label %53

52:                                               ; preds = %44
  br label %53

53:                                               ; preds = %52, %50
  %54 = phi i32 [ %51, %50 ], [ 4, %52 ]
  %55 = sext i32 %54 to i64
  %56 = call i32 @xstrncasecmp(ptr noundef %47, ptr noundef @.str.61, i64 noundef %55)
  %57 = icmp ne i32 %56, 0
  br i1 %57, label %64, label %58

58:                                               ; preds = %53, %39
  %59 = load i32, ptr %3, align 4
  %60 = sub nsw i32 %59, 1
  %61 = load ptr, ptr %4, align 8
  %62 = getelementptr inbounds ptr, ptr %61, i64 1
  %63 = call i32 @sacctmgr_delete_account(i32 noundef %60, ptr noundef %62)
  store i32 %63, ptr %5, align 4
  br label %202

64:                                               ; preds = %53
  %65 = load ptr, ptr %4, align 8
  %66 = getelementptr inbounds ptr, ptr %65, i64 0
  %67 = load ptr, ptr %66, align 8
  %68 = load i32, ptr %6, align 4
  %69 = icmp sgt i32 %68, 2
  br i1 %69, label %70, label %72

70:                                               ; preds = %64
  %71 = load i32, ptr %6, align 4
  br label %73

72:                                               ; preds = %64
  br label %73

73:                                               ; preds = %72, %70
  %74 = phi i32 [ %71, %70 ], [ 2, %72 ]
  %75 = sext i32 %74 to i64
  %76 = call i32 @xstrncasecmp(ptr noundef %67, ptr noundef @.str.82, i64 noundef %75)
  %77 = icmp eq i32 %76, 0
  br i1 %77, label %78, label %84

78:                                               ; preds = %73
  %79 = load i32, ptr %3, align 4
  %80 = sub nsw i32 %79, 1
  %81 = load ptr, ptr %4, align 8
  %82 = getelementptr inbounds ptr, ptr %81, i64 1
  %83 = call i32 @sacctmgr_delete_cluster(i32 noundef %80, ptr noundef %82)
  store i32 %83, ptr %5, align 4
  br label %201

84:                                               ; preds = %73
  %85 = load ptr, ptr %4, align 8
  %86 = getelementptr inbounds ptr, ptr %85, i64 0
  %87 = load ptr, ptr %86, align 8
  %88 = load i32, ptr %6, align 4
  %89 = icmp sgt i32 %88, 2
  br i1 %89, label %90, label %92

90:                                               ; preds = %84
  %91 = load i32, ptr %6, align 4
  br label %93

92:                                               ; preds = %84
  br label %93

93:                                               ; preds = %92, %90
  %94 = phi i32 [ %91, %90 ], [ 2, %92 ]
  %95 = sext i32 %94 to i64
  %96 = call i32 @xstrncasecmp(ptr noundef %87, ptr noundef @.str.101, i64 noundef %95)
  %97 = icmp eq i32 %96, 0
  br i1 %97, label %98, label %104

98:                                               ; preds = %93
  %99 = load i32, ptr %3, align 4
  %100 = sub nsw i32 %99, 1
  %101 = load ptr, ptr %4, align 8
  %102 = getelementptr inbounds ptr, ptr %101, i64 1
  %103 = call i32 @sacctmgr_delete_coord(i32 noundef %100, ptr noundef %102)
  store i32 %103, ptr %5, align 4
  br label %200

104:                                              ; preds = %93
  %105 = load ptr, ptr %4, align 8
  %106 = getelementptr inbounds ptr, ptr %105, i64 0
  %107 = load ptr, ptr %106, align 8
  %108 = load i32, ptr %6, align 4
  %109 = icmp sgt i32 %108, 1
  br i1 %109, label %110, label %112

110:                                              ; preds = %104
  %111 = load i32, ptr %6, align 4
  br label %113

112:                                              ; preds = %104
  br label %113

113:                                              ; preds = %112, %110
  %114 = phi i32 [ %111, %110 ], [ 1, %112 ]
  %115 = sext i32 %114 to i64
  %116 = call i32 @xstrncasecmp(ptr noundef %107, ptr noundef @.str.102, i64 noundef %115)
  %117 = icmp eq i32 %116, 0
  br i1 %117, label %118, label %124

118:                                              ; preds = %113
  %119 = load i32, ptr %3, align 4
  %120 = sub nsw i32 %119, 1
  %121 = load ptr, ptr %4, align 8
  %122 = getelementptr inbounds ptr, ptr %121, i64 1
  %123 = call i32 @sacctmgr_delete_federation(i32 noundef %120, ptr noundef %122)
  store i32 %123, ptr %5, align 4
  br label %199

124:                                              ; preds = %113
  %125 = load ptr, ptr %4, align 8
  %126 = getelementptr inbounds ptr, ptr %125, i64 0
  %127 = load ptr, ptr %126, align 8
  %128 = load i32, ptr %6, align 4
  %129 = icmp sgt i32 %128, 2
  br i1 %129, label %130, label %132

130:                                              ; preds = %124
  %131 = load i32, ptr %6, align 4
  br label %133

132:                                              ; preds = %124
  br label %133

133:                                              ; preds = %132, %130
  %134 = phi i32 [ %131, %130 ], [ 2, %132 ]
  %135 = sext i32 %134 to i64
  %136 = call i32 @xstrncasecmp(ptr noundef %127, ptr noundef @.str.65, i64 noundef %135)
  %137 = icmp eq i32 %136, 0
  br i1 %137, label %138, label %144

138:                                              ; preds = %133
  %139 = load i32, ptr %3, align 4
  %140 = sub nsw i32 %139, 1
  %141 = load ptr, ptr %4, align 8
  %142 = getelementptr inbounds ptr, ptr %141, i64 1
  %143 = call i32 @sacctmgr_delete_qos(i32 noundef %140, ptr noundef %142)
  store i32 %143, ptr %5, align 4
  br label %198

144:                                              ; preds = %133
  %145 = load ptr, ptr %4, align 8
  %146 = getelementptr inbounds ptr, ptr %145, i64 0
  %147 = load ptr, ptr %146, align 8
  %148 = load i32, ptr %6, align 4
  %149 = icmp sgt i32 %148, 1
  br i1 %149, label %150, label %152

150:                                              ; preds = %144
  %151 = load i32, ptr %6, align 4
  br label %153

152:                                              ; preds = %144
  br label %153

153:                                              ; preds = %152, %150
  %154 = phi i32 [ %151, %150 ], [ 1, %152 ]
  %155 = sext i32 %154 to i64
  %156 = call i32 @xstrncasecmp(ptr noundef %147, ptr noundef @.str.66, i64 noundef %155)
  %157 = icmp eq i32 %156, 0
  br i1 %157, label %158, label %164

158:                                              ; preds = %153
  %159 = load i32, ptr %3, align 4
  %160 = sub nsw i32 %159, 1
  %161 = load ptr, ptr %4, align 8
  %162 = getelementptr inbounds ptr, ptr %161, i64 1
  %163 = call i32 @sacctmgr_delete_res(i32 noundef %160, ptr noundef %162)
  store i32 %163, ptr %5, align 4
  br label %197

164:                                              ; preds = %153
  %165 = load ptr, ptr %4, align 8
  %166 = getelementptr inbounds ptr, ptr %165, i64 0
  %167 = load ptr, ptr %166, align 8
  %168 = load i32, ptr %6, align 4
  %169 = icmp sgt i32 %168, 1
  br i1 %169, label %170, label %172

170:                                              ; preds = %164
  %171 = load i32, ptr %6, align 4
  br label %173

172:                                              ; preds = %164
  br label %173

173:                                              ; preds = %172, %170
  %174 = phi i32 [ %171, %170 ], [ 1, %172 ]
  %175 = sext i32 %174 to i64
  %176 = call i32 @xstrncasecmp(ptr noundef %167, ptr noundef @.str.93, i64 noundef %175)
  %177 = icmp eq i32 %176, 0
  br i1 %177, label %178, label %184

178:                                              ; preds = %173
  %179 = load i32, ptr %3, align 4
  %180 = sub nsw i32 %179, 1
  %181 = load ptr, ptr %4, align 8
  %182 = getelementptr inbounds ptr, ptr %181, i64 1
  %183 = call i32 @sacctmgr_delete_user(i32 noundef %180, ptr noundef %182)
  store i32 %183, ptr %5, align 4
  br label %196

184:                                              ; preds = %173
  br label %185

185:                                              ; preds = %184, %22
  store i32 1, ptr @exit_code, align 4
  %186 = load ptr, ptr @stderr, align 8
  %187 = call i32 (ptr, ptr, ...) @fprintf(ptr noundef %186, ptr noundef @.str.103) #12
  %188 = load ptr, ptr @stderr, align 8
  %189 = call i32 (ptr, ptr, ...) @fprintf(ptr noundef %188, ptr noundef @.str.69) #12
  %190 = load ptr, ptr @stderr, align 8
  %191 = call i32 (ptr, ptr, ...) @fprintf(ptr noundef %190, ptr noundef @.str.70) #12
  %192 = load ptr, ptr @stderr, align 8
  %193 = call i32 (ptr, ptr, ...) @fprintf(ptr noundef %192, ptr noundef @.str.104) #12
  %194 = load ptr, ptr @stderr, align 8
  %195 = call i32 (ptr, ptr, ...) @fprintf(ptr noundef %194, ptr noundef @.str.105) #12
  br label %196

196:                                              ; preds = %185, %178
  br label %197

197:                                              ; preds = %196, %158
  br label %198

198:                                              ; preds = %197, %138
  br label %199

199:                                              ; preds = %198, %118
  br label %200

200:                                              ; preds = %199, %98
  br label %201

201:                                              ; preds = %200, %78
  br label %202

202:                                              ; preds = %201, %58
  %203 = load i32, ptr %5, align 4
  %204 = icmp ne i32 %203, 0
  br i1 %204, label %205, label %206

205:                                              ; preds = %202
  store i32 1, ptr @exit_code, align 4
  br label %206

206:                                              ; preds = %205, %202
  store i32 0, ptr %7, align 4
  br label %207

207:                                              ; preds = %206, %14, %10
  call void @llvm.lifetime.end.p0(i64 4, ptr %6) #12
  call void @llvm.lifetime.end.p0(i64 4, ptr %5) #12
  %208 = load i32, ptr %7, align 4
  switch i32 %208, label %210 [
    i32 0, label %209
    i32 1, label %209
  ]

209:                                              ; preds = %207, %207
  ret void

210:                                              ; preds = %207
  unreachable
}