; Function Attrs: nounwind uwtable
define internal fastcc void @_delete_it(i32 noundef range(i32 0, 2147483647) %0, ptr noundef %1) unnamed_addr #7 {
  %3 = load i8, ptr @have_db_conn, align 1, !range !14, !noundef !15
  %4 = trunc nuw i8 %3 to i1
  br i1 %4, label %6, label %5

5:                                                ; preds = %2
  store i32 1, ptr @exit_code, align 4
  br label %94

6:                                                ; preds = %2
  %7 = load i32, ptr @readonly_flag, align 4
  %.not = icmp eq i32 %7, 0
  br i1 %.not, label %11, label %8

8:                                                ; preds = %6
  store i32 1, ptr @exit_code, align 4
  %9 = load ptr, ptr @stderr, align 8
  %10 = tail call i64 @fwrite(ptr nonnull @.str.59, i64 41, i64 1, ptr %9) #16
  br label %94

11:                                               ; preds = %6
  %12 = load ptr, ptr %1, align 8
  %.not41 = icmp eq ptr %12, null
  br i1 %.not41, label %.thread, label %13

13:                                               ; preds = %11
  %14 = tail call i64 @strlen(ptr noundef nonnull dereferenceable(1) %12) #21
  %15 = trunc i64 %14 to i32
  %16 = load ptr, ptr @db_conn, align 8
  %17 = tail call i32 @slurmdb_connection_commit(ptr noundef %16, i1 noundef zeroext false) #15
  %18 = load ptr, ptr %1, align 8
  %19 = tail call i32 @llvm.smax.i32(i32 %15, i32 1)
  %20 = zext nneg i32 %19 to i64
  %21 = tail call i32 @xstrncasecmp(ptr noundef %18, ptr noundef nonnull @.str.80, i64 noundef %20) #15
  %22 = icmp eq i32 %21, 0
  br i1 %22, label %28, label %23

23:                                               ; preds = %13
  %24 = load ptr, ptr %1, align 8
  %25 = tail call i32 @llvm.smax.i32(i32 %15, i32 4)
  %26 = zext nneg i32 %25 to i64
  %27 = tail call i32 @xstrncasecmp(ptr noundef %24, ptr noundef nonnull @.str.61, i64 noundef %26) #15
  %.not42 = icmp eq i32 %27, 0
  br i1 %.not42, label %28, label %32

28:                                               ; preds = %23, %13
  %29 = add nsw i32 %0, -1
  %30 = getelementptr inbounds nuw i8, ptr %1, i64 8
  %31 = tail call i32 @sacctmgr_delete_account(i32 noundef %29, ptr noundef nonnull %30) #15
  br label %92

32:                                               ; preds = %23
  %33 = load ptr, ptr %1, align 8
  %34 = tail call i32 @llvm.smax.i32(i32 %15, i32 2)
  %35 = zext nneg i32 %34 to i64
  %36 = tail call i32 @xstrncasecmp(ptr noundef %33, ptr noundef nonnull @.str.82, i64 noundef %35) #15
  %37 = icmp eq i32 %36, 0
  br i1 %37, label %38, label %42

38:                                               ; preds = %32
  %39 = add nsw i32 %0, -1
  %40 = getelementptr inbounds nuw i8, ptr %1, i64 8
  %41 = tail call i32 @sacctmgr_delete_cluster(i32 noundef %39, ptr noundef nonnull %40) #15
  br label %92

42:                                               ; preds = %32
  %43 = load ptr, ptr %1, align 8
  %44 = tail call i32 @xstrncasecmp(ptr noundef %43, ptr noundef nonnull @.str.101, i64 noundef %35) #15
  %45 = icmp eq i32 %44, 0
  br i1 %45, label %46, label %50

46:                                               ; preds = %42
  %47 = add nsw i32 %0, -1
  %48 = getelementptr inbounds nuw i8, ptr %1, i64 8
  %49 = tail call i32 @sacctmgr_delete_coord(i32 noundef %47, ptr noundef nonnull %48) #15
  br label %92

50:                                               ; preds = %42
  %51 = load ptr, ptr %1, align 8
  %52 = tail call i32 @xstrncasecmp(ptr noundef %51, ptr noundef nonnull @.str.102, i64 noundef %20) #15
  %53 = icmp eq i32 %52, 0
  br i1 %53, label %54, label %58

54:                                               ; preds = %50
  %55 = add nsw i32 %0, -1
  %56 = getelementptr inbounds nuw i8, ptr %1, i64 8
  %57 = tail call i32 @sacctmgr_delete_federation(i32 noundef %55, ptr noundef nonnull %56) #15
  br label %92

58:                                               ; preds = %50
  %59 = load ptr, ptr %1, align 8
  %60 = tail call i32 @xstrncasecmp(ptr noundef %59, ptr noundef nonnull @.str.65, i64 noundef %35) #15
  %61 = icmp eq i32 %60, 0
  br i1 %61, label %62, label %66

62:                                               ; preds = %58
  %63 = add nsw i32 %0, -1
  %64 = getelementptr inbounds nuw i8, ptr %1, i64 8
  %65 = tail call i32 @sacctmgr_delete_qos(i32 noundef %63, ptr noundef nonnull %64) #15
  br label %92

66:                                               ; preds = %58
  %67 = load ptr, ptr %1, align 8
  %68 = tail call i32 @xstrncasecmp(ptr noundef %67, ptr noundef nonnull @.str.66, i64 noundef %20) #15
  %69 = icmp eq i32 %68, 0
  br i1 %69, label %70, label %74

70:                                               ; preds = %66
  %71 = add nsw i32 %0, -1
  %72 = getelementptr inbounds nuw i8, ptr %1, i64 8
  %73 = tail call i32 @sacctmgr_delete_res(i32 noundef %71, ptr noundef nonnull %72) #15
  br label %92

74:                                               ; preds = %66
  %75 = load ptr, ptr %1, align 8
  %76 = tail call i32 @xstrncasecmp(ptr noundef %75, ptr noundef nonnull @.str.93, i64 noundef %20) #15
  %77 = icmp eq i32 %76, 0
  br i1 %77, label %78, label %.thread

78:                                               ; preds = %74
  %79 = add nsw i32 %0, -1
  %80 = getelementptr inbounds nuw i8, ptr %1, i64 8
  %81 = tail call i32 @sacctmgr_delete_user(i32 noundef %79, ptr noundef nonnull %80) #15
  br label %92

.thread:                                          ; preds = %11, %74
  store i32 1, ptr @exit_code, align 4
  %82 = load ptr, ptr @stderr, align 8
  %83 = tail call i64 @fwrite(ptr nonnull @.str.103, i64 34, i64 1, ptr %82) #16
  %84 = load ptr, ptr @stderr, align 8
  %85 = tail call i64 @fwrite(ptr nonnull @.str.69, i64 24, i64 1, ptr %84) #16
  %86 = load ptr, ptr @stderr, align 8
  %87 = tail call i64 @fwrite(ptr nonnull @.str.70, i64 37, i64 1, ptr %86) #16
  %88 = load ptr, ptr @stderr, align 8
  %89 = tail call i64 @fwrite(ptr nonnull @.str.104, i64 36, i64 1, ptr %88) #16
  %90 = load ptr, ptr @stderr, align 8
  %91 = tail call i64 @fwrite(ptr nonnull @.str.105, i64 7, i64 1, ptr %90) #16
  br label %94

92:                                               ; preds = %38, %54, %70, %78, %62, %46, %28
  %.0 = phi i32 [ %31, %28 ], [ %41, %38 ], [ %49, %46 ], [ %57, %54 ], [ %65, %62 ], [ %73, %70 ], [ %81, %78 ]
  %.not43 = icmp eq i32 %.0, 0
  br i1 %.not43, label %94, label %93

93:                                               ; preds = %92
  store i32 1, ptr @exit_code, align 4
  br label %94

94:                                               ; preds = %.thread, %92, %93, %8, %5
  ret void
}